target datalayout = "e-m:e-p270:32:32-p271:32:32-p272:64:64-i64:64-i128:128-f80:128-n8:16:32:64-S128"
target triple = "x86_64-pc-linux-gnu"

%struct.H5O_token_t = type { [16 x i8] }
%struct.H5_user_cb_state_t = type { %struct.H5E_user_cb_state_t }
%struct.H5E_user_cb_state_t = type { i32, %union.anon, ptr }
%union.anon = type { ptr }
%struct.H5VL_class_t = type { i32, i32, ptr, i32, i64, ptr, ptr, %struct.H5VL_info_class_t, %struct.H5VL_wrap_class_t, %struct.H5VL_attr_class_t, %struct.H5VL_dataset_class_t, %struct.H5VL_datatype_class_t, %struct.H5VL_file_class_t, %struct.H5VL_group_class_t, %struct.H5VL_link_class_t, %struct.H5VL_object_class_t, %struct.H5VL_introspect_class_t, %struct.H5VL_request_class_t, %struct.H5VL_blob_class_t, %struct.H5VL_token_class_t, ptr }
%struct.H5VL_info_class_t = type { i64, ptr, ptr, ptr, ptr, ptr }
%struct.H5VL_wrap_class_t = type { ptr, ptr, ptr, ptr, ptr }
%struct.H5VL_attr_class_t = type { ptr, ptr, ptr, ptr, ptr, ptr, ptr, ptr }
%struct.H5VL_dataset_class_t = type { ptr, ptr, ptr, ptr, ptr, ptr, ptr, ptr }
%struct.H5VL_datatype_class_t = type { ptr, ptr, ptr, ptr, ptr, ptr }
%struct.H5VL_file_class_t = type { ptr, ptr, ptr, ptr, ptr, ptr }
%struct.H5VL_group_class_t = type { ptr, ptr, ptr, ptr, ptr, ptr }
%struct.H5VL_link_class_t = type { ptr, ptr, ptr, ptr, ptr, ptr }
%struct.H5VL_object_class_t = type { ptr, ptr, ptr, ptr, ptr }
%struct.H5VL_introspect_class_t = type { ptr, ptr, ptr }
%struct.H5VL_request_class_t = type { ptr, ptr, ptr, ptr, ptr, ptr }
%struct.H5VL_blob_class_t = type { ptr, ptr, ptr, ptr }
%struct.H5VL_token_class_t = type { ptr, ptr, ptr }

@.str = private unnamed_addr constant [106 x i8] c"generated/home/dtcxzyw/WorkSpace/Projects/compilers/llvm-opt-benchmark/bench/hdf5/hdf5/src/H5VLcallback.c\00", align 1
@H5E_LIB_g = external global i64, align 8
@H5E_CANTSET_g = external global i64, align 8
@.str.2 = private unnamed_addr constant [37 x i8] c"preparation for user callback failed\00", align 1
@H5E_CANTRESTORE_g = external global i64, align 8
@H5E_VOL_g = external global i64, align 8
@H5VL_init_g = external global i8, align 1
@H5_libterm_g = external global i8, align 1
@H5E_CANTUNSERIALIZE_g = external global i64, align 8
@__func__.H5VL__token_from_str = private unnamed_addr constant [21 x i8] c"H5VL__token_from_str\00", align 1
@.str.241 = private unnamed_addr constant [38 x i8] c"can't deserialize object token string\00", align 1
@H5O_TOKEN_UNDEF_g = external constant %struct.H5O_token_t, align 1

; Function Attrs: nounwind uwtable
define internal i32 @H5VL__token_from_str(ptr noundef %0, i32 noundef %1, ptr noundef %2, ptr noundef %3, ptr noundef %4) #0 {
  %6 = alloca i32, align 4
  %7 = alloca ptr, align 8
  %8 = alloca i32, align 4
  %9 = alloca ptr, align 8
  %10 = alloca ptr, align 8
  %11 = alloca ptr, align 8
  %12 = alloca i32, align 4
  %13 = alloca i8, align 1
  %14 = alloca %struct.H5_user_cb_state_t, align 8
  %15 = alloca i32, align 4
  store ptr %0, ptr %7, align 8, !tbaa !42
  store i32 %1, ptr %8, align 4, !tbaa !7
  store ptr %2, ptr %9, align 8, !tbaa !54
  store ptr %3, ptr %10, align 8, !tbaa !50
  store ptr %4, ptr %11, align 8, !tbaa !185
  call void @llvm.lifetime.start.p0(i64 4, ptr %12) #8
  store i32 0, ptr %12, align 4, !tbaa !7
  call void @llvm.lifetime.start.p0(i64 1, ptr %13) #8
  store i8 0, ptr %13, align 1, !tbaa !9
  %16 = load i8, ptr @H5VL_init_g, align 1, !tbaa !9, !range !14, !noundef !15
  %17 = trunc i8 %16 to i1
  br i1 %17, label %22, label %18

18:                                               ; preds = %5
  %19 = load i8, ptr @H5_libterm_g, align 1, !tbaa !9, !range !14, !noundef !15
  %20 = trunc i8 %19 to i1
  %21 = xor i1 %20, true
  br label %22

22:                                               ; preds = %18, %5
  %23 = phi i1 [ true, %5 ], [ %21, %18 ]
  %24 = xor i1 %23, true
  %25 = xor i1 %24, true
  %26 = zext i1 %25 to i32
  %27 = sext i32 %26 to i64
  %28 = call i64 @llvm.expect.i64(i64 %27, i64 1)
  %29 = icmp ne i64 %28, 0
  br i1 %29, label %30, label %119

30:                                               ; preds = %22
  %31 = load ptr, ptr %9, align 8, !tbaa !54
  %32 = getelementptr inbounds nuw %struct.H5VL_class_t, ptr %31, i32 0, i32 19
  %33 = getelementptr inbounds nuw %struct.H5VL_token_class_t, ptr %32, i32 0, i32 2
  %34 = load ptr, ptr %33, align 8, !tbaa !189
  %35 = icmp ne ptr %34, null
  br i1 %35, label %36, label %115

36:                                               ; preds = %30
  call void @llvm.lifetime.start.p0(i64 24, ptr %14) #8
  %37 = call i32 @H5_user_cb_prepare(ptr noundef %14)
  %38 = icmp slt i32 %37, 0
  br i1 %38, label %39, label %58

39:                                               ; preds = %36
  br label %40

40:                                               ; preds = %39
  br label %41

41:                                               ; preds = %40
  br label %42

42:                                               ; preds = %41
  %43 = load i64, ptr @H5E_LIB_g, align 8, !tbaa !3
  %44 = load i64, ptr @H5E_CANTSET_g, align 8, !tbaa !3
  %45 = call i32 (ptr, ptr, i32, i64, i64, ptr, ...) @H5E_printf_stack(ptr noundef @.str, ptr noundef @__func__.H5VL__token_from_str, i32 noundef 8059, i64 noundef %43, i64 noundef %44, ptr noundef @.str.2)
  br label %46

46:                                               ; preds = %42
  br label %47

47:                                               ; preds = %46
  store i8 1, ptr %13, align 1, !tbaa !9
  %48 = load i8, ptr %13, align 1, !tbaa !9, !range !14, !noundef !15
  %49 = trunc i8 %48 to i1
  %50 = zext i1 %49 to i8
  store i8 %50, ptr %13, align 1, !tbaa !9
  br label %51

51:                                               ; preds = %47
  br label %52

52:                                               ; preds = %51
  br label %53

53:                                               ; preds = %52
  store i32 -1, ptr %12, align 4, !tbaa !7
  store i32 10, ptr %15, align 4
  br label %90

54:                                               ; No predecessors!
  br label %55

55:                                               ; preds = %54
  br label %56

56:                                               ; preds = %55
  br label %57

57:                                               ; preds = %56
  br label %58

58:                                               ; preds = %57, %36
  %59 = load ptr, ptr %9, align 8, !tbaa !54
  %60 = getelementptr inbounds nuw %struct.H5VL_class_t, ptr %59, i32 0, i32 19
  %61 = getelementptr inbounds nuw %struct.H5VL_token_class_t, ptr %60, i32 0, i32 2
  %62 = load ptr, ptr %61, align 8, !tbaa !189
  %63 = load ptr, ptr %7, align 8, !tbaa !42
  %64 = load i32, ptr %8, align 4, !tbaa !7
  %65 = load ptr, ptr %10, align 8, !tbaa !50
  %66 = load ptr, ptr %11, align 8, !tbaa !185
  %67 = call i32 %62(ptr noundef %63, i32 noundef %64, ptr noundef %65, ptr noundef %66)
  store i32 %67, ptr %12, align 4, !tbaa !7
  %68 = call i32 @H5_user_cb_restore(ptr noundef %14)
  %69 = icmp slt i32 %68, 0
  br i1 %69, label %70, label %89

70:                                               ; preds = %58
  br label %71

71:                                               ; preds = %70
  br label %72

72:                                               ; preds = %71
  br label %73

73:                                               ; preds = %72
  %74 = load i64, ptr @H5E_LIB_g, align 8, !tbaa !3
  %75 = load i64, ptr @H5E_CANTRESTORE_g, align 8, !tbaa !3
  %76 = call i32 (ptr, ptr, i32, i64, i64, ptr, ...) @H5E_printf_stack(ptr noundef @.str, ptr noundef @__func__.H5VL__token_from_str, i32 noundef 8063, i64 noundef %74, i64 noundef %75, ptr noundef @.str.2)
  br label %77

77:                                               ; preds = %73
  br label %78

78:                                               ; preds = %77
  store i8 1, ptr %13, align 1, !tbaa !9
  %79 = load i8, ptr %13, align 1, !tbaa !9, !range !14, !noundef !15
  %80 = trunc i8 %79 to i1
  %81 = zext i1 %80 to i8
  store i8 %81, ptr %13, align 1, !tbaa !9
  br label %82

82:                                               ; preds = %78
  br label %83

83:                                               ; preds = %82
  br label %84

84:                                               ; preds = %83
  store i32 -1, ptr %12, align 4, !tbaa !7
  store i32 10, ptr %15, align 4
  br label %90

85:                                               ; No predecessors!
  br label %86

86:                                               ; preds = %85
  br label %87

87:                                               ; preds = %86
  br label %88

88:                                               ; preds = %87
  br label %89

89:                                               ; preds = %88, %58
  store i32 0, ptr %15, align 4
  br label %90

90:                                               ; preds = %84, %53, %89
  call void @llvm.lifetime.end.p0(i64 24, ptr %14) #8
  %91 = load i32, ptr %15, align 4
  switch i32 %91, label %121 [
    i32 0, label %92
    i32 10, label %118
  ]

92:                                               ; preds = %90
  %93 = load i32, ptr %12, align 4, !tbaa !7
  %94 = icmp slt i32 %93, 0
  br i1 %94, label %95, label %114

95:                                               ; preds = %92
  br label %96

96:                                               ; preds = %95
  br label %97

97:                                               ; preds = %96
  br label %98

98:                                               ; preds = %97
  %99 = load i64, ptr @H5E_VOL_g, align 8, !tbaa !3
  %100 = load i64, ptr @H5E_CANTUNSERIALIZE_g, align 8, !tbaa !3
  %101 = call i32 (ptr, ptr, i32, i64, i64, ptr, ...) @H5E_printf_stack(ptr noundef @.str, ptr noundef @__func__.H5VL__token_from_str, i32 noundef 8065, i64 noundef %99, i64 noundef %100, ptr noundef @.str.241)
  br label %102

102:                                              ; preds = %98
  br label %103

103:                                              ; preds = %102
  store i8 1, ptr %13, align 1, !tbaa !9
  %104 = load i8, ptr %13, align 1, !tbaa !9, !range !14, !noundef !15
  %105 = trunc i8 %104 to i1
  %106 = zext i1 %105 to i8
  store i8 %106, ptr %13, align 1, !tbaa !9
  br label %107

107:                                              ; preds = %103
  br label %108

108:                                              ; preds = %107
  br label %109

109:                                              ; preds = %108
  store i32 -1, ptr %12, align 4, !tbaa !7
  br label %118

110:                                              ; No predecessors!
  br label %111

111:                                              ; preds = %110
  br label %112

112:                                              ; preds = %111
  br label %113

113:                                              ; preds = %112
  br label %114

114:                                              ; preds = %113, %92
  br label %117

115:                                              ; preds = %30
  %116 = load ptr, ptr %11, align 8, !tbaa !185
  call void @llvm.memcpy.p0.p0.i64(ptr align 1 %116, ptr align 1 @H5O_TOKEN_UNDEF_g, i64 16, i1 false), !tbaa.struct !190
  br label %117

117:                                              ; preds = %115, %114
  br label %118

118:                                              ; preds = %117, %90, %109
  br label %119

119:                                              ; preds = %118, %22
  %120 = load i32, ptr %12, align 4, !tbaa !7
  store i32 %120, ptr %6, align 4
  store i32 1, ptr %15, align 4
  br label %121

121:                                              ; preds = %119, %90
  call void @llvm.lifetime.end.p0(i64 1, ptr %13) #8
  call void @llvm.lifetime.end.p0(i64 4, ptr %12) #8
  %122 = load i32, ptr %6, align 4
  ret i32 %122
}