; Function Attrs: nounwind uwtable
define internal fastcc range(i32 -1, -2147483648) i32 @H5VL__token_from_str(ptr noundef %0, i32 noundef %1, ptr noundef readonly captures(none) %2, ptr noundef %3, ptr noundef %4) unnamed_addr #0 {
  %6 = alloca %struct.H5_user_cb_state_t, align 8
  %7 = load i8, ptr @H5VL_init_g, align 1, !tbaa !33, !range !35, !noundef !36
  %8 = trunc nuw i8 %7 to i1
  %9 = load i8, ptr @H5_libterm_g, align 1, !range !35
  %10 = trunc nuw i8 %9 to i1
  %11 = xor i1 %10, true
  %12 = select i1 %8, i1 true, i1 %11
  br i1 %12, label %13, label %34, !prof !37

13:                                               ; preds = %5
  %14 = getelementptr inbounds nuw i8, ptr %2, i64 616
  %15 = load ptr, ptr %14, align 8, !tbaa !139
  %.not = icmp eq ptr %15, null
  br i1 %.not, label %33, label %16

16:                                               ; preds = %13
  call void @llvm.lifetime.start.p0(i64 24, ptr nonnull %6) #7
  %17 = call i32 @H5_user_cb_prepare(ptr noundef nonnull %6) #7
  %18 = icmp slt i32 %17, 0
  br i1 %18, label %.thread, label %19

19:                                               ; preds = %16
  %20 = load ptr, ptr %14, align 8, !tbaa !139
  %21 = call i32 %20(ptr noundef %0, i32 noundef %1, ptr noundef %3, ptr noundef %4) #7
  %22 = call i32 @H5_user_cb_restore(ptr noundef nonnull %6) #7
  %23 = icmp slt i32 %22, 0
  br i1 %23, label %.thread, label %27

.thread:                                          ; preds = %19, %16
  %H5E_CANTSET_g.sink = phi ptr [ @H5E_CANTSET_g, %16 ], [ @H5E_CANTRESTORE_g, %19 ]
  %.sink = phi i32 [ 8059, %16 ], [ 8063, %19 ]
  %24 = load i64, ptr @H5E_LIB_g, align 8, !tbaa !3
  %25 = load i64, ptr %H5E_CANTSET_g.sink, align 8, !tbaa !3
  %26 = call i32 (ptr, ptr, i32, i64, i64, ptr, ...) @H5E_printf_stack(ptr noundef nonnull @.str, ptr noundef nonnull @__func__.H5VL__token_from_str, i32 noundef %.sink, i64 noundef %24, i64 noundef %25, ptr noundef nonnull @.str.2) #7
  call void @llvm.lifetime.end.p0(i64 24, ptr nonnull %6) #7
  br label %34

27:                                               ; preds = %19
  call void @llvm.lifetime.end.p0(i64 24, ptr nonnull %6) #7
  %28 = icmp slt i32 %21, 0
  br i1 %28, label %29, label %34

29:                                               ; preds = %27
  %30 = load i64, ptr @H5E_VOL_g, align 8, !tbaa !3
  %31 = load i64, ptr @H5E_CANTUNSERIALIZE_g, align 8, !tbaa !3
  %32 = call i32 (ptr, ptr, i32, i64, i64, ptr, ...) @H5E_printf_stack(ptr noundef nonnull @.str, ptr noundef nonnull @__func__.H5VL__token_from_str, i32 noundef 8065, i64 noundef %30, i64 noundef %31, ptr noundef nonnull @.str.241) #7
  br label %34

33:                                               ; preds = %13
  tail call void @llvm.memcpy.p0.p0.i64(ptr noundef nonnull align 1 dereferenceable(16) %4, ptr noundef nonnull align 1 dereferenceable(16) @H5O_TOKEN_UNDEF_g, i64 16, i1 false), !tbaa.struct !140
  br label %34

34:                                               ; preds = %.thread, %27, %5, %33, %29
  %.014 = phi i32 [ %21, %27 ], [ -1, %29 ], [ 0, %33 ], [ 0, %5 ], [ -1, %.thread ]
  ret i32 %.014
}